; Function Attrs: mustprogress nounwind uwtable
define internal fastcc void @_ZL22printBinaryIdsInternalRN4llvm11raw_ostreamENS_8ArrayRefINS_11SmallVectorIhLj10EEEEE(ptr noundef nonnull align 8 dereferenceable(48) %0, ptr %1, i64 %2) unnamed_addr #0 {
  %4 = alloca %"class.llvm::format_object", align 8
  %5 = getelementptr inbounds nuw i8, ptr %0, i64 24
  %6 = load ptr, ptr %5, align 8
  %7 = getelementptr inbounds nuw i8, ptr %0, i64 32
  %8 = load ptr, ptr %7, align 8
  %9 = ptrtoint ptr %6 to i64
  %10 = ptrtoint ptr %8 to i64
  %11 = sub i64 %9, %10
  %12 = icmp ult i64 %11, 13
  br i1 %12, label %13, label %15

13:                                               ; preds = %3
  %14 = tail call noundef nonnull align 8 dereferenceable(48) ptr @_ZN4llvm11raw_ostream5writeEPKcm(ptr noundef nonnull align 8 dereferenceable(48) %0, ptr noundef nonnull @.str.46, i64 noundef 13) #21
  br label %_ZN4llvm11raw_ostreamlsEPKc.exit

15:                                               ; preds = %3
  tail call void @llvm.memcpy.p0.p0.i64(ptr noundef nonnull align 1 dereferenceable(13) %8, ptr noundef nonnull align 1 dereferenceable(13) @.str.46, i64 13, i1 false)
  %16 = load ptr, ptr %7, align 8
  %17 = getelementptr inbounds i8, ptr %16, i64 13
  store ptr %17, ptr %7, align 8
  br label %_ZN4llvm11raw_ostreamlsEPKc.exit

_ZN4llvm11raw_ostreamlsEPKc.exit:                 ; preds = %13, %15
  %18 = getelementptr inbounds %"class.llvm::SmallVector.398", ptr %1, i64 %2
  %.not24 = icmp eq i64 %2, 0
  br i1 %.not24, label %._crit_edge27, label %.lr.ph26

.lr.ph26:                                         ; preds = %_ZN4llvm11raw_ostreamlsEPKc.exit
  %19 = getelementptr inbounds nuw i8, ptr %4, i64 8
  %20 = getelementptr inbounds nuw i8, ptr %4, i64 16
  br label %21

21:                                               ; preds = %.lr.ph26, %_ZN4llvm11raw_ostreamlsEPKc.exit20
  %.025 = phi ptr [ %1, %.lr.ph26 ], [ %36, %_ZN4llvm11raw_ostreamlsEPKc.exit20 ]
  %22 = load ptr, ptr %.025, align 8
  %23 = call noundef i64 @_ZNK4llvm15SmallVectorBaseImE4sizeEv(ptr noundef nonnull align 8 dereferenceable(24) %.025) #21
  %24 = getelementptr inbounds i8, ptr %22, i64 %23
  %.not1722 = icmp eq i64 %23, 0
  br i1 %.not1722, label %._crit_edge, label %.lr.ph

.lr.ph:                                           ; preds = %21, %.lr.ph
  %.01623 = phi ptr [ %27, %.lr.ph ], [ %22, %21 ]
  %25 = load i8, ptr %.01623, align 1
  store ptr @.str.47, ptr %19, align 8, !alias.scope !714
  store ptr getelementptr inbounds inrange(-16, 16) (i8, ptr @_ZTVN4llvm13format_objectIJhEEE, i64 16), ptr %4, align 8, !alias.scope !714
  store i8 %25, ptr %20, align 8, !alias.scope !714
  %26 = call noundef nonnull align 8 dereferenceable(48) ptr @_ZN4llvm11raw_ostreamlsERKNS_18format_object_baseE(ptr noundef nonnull align 8 dereferenceable(48) %0, ptr noundef nonnull align 8 dereferenceable(16) %4) #21
  %27 = getelementptr inbounds i8, ptr %.01623, i64 1
  %.not17 = icmp eq ptr %27, %24
  br i1 %.not17, label %._crit_edge, label %.lr.ph

._crit_edge:                                      ; preds = %.lr.ph, %21
  %28 = load ptr, ptr %5, align 8
  %29 = load ptr, ptr %7, align 8
  %30 = icmp eq ptr %28, %29
  br i1 %30, label %31, label %33

31:                                               ; preds = %._crit_edge
  %32 = call noundef nonnull align 8 dereferenceable(48) ptr @_ZN4llvm11raw_ostream5writeEPKcm(ptr noundef nonnull align 8 dereferenceable(48) %0, ptr noundef nonnull @.str.48, i64 noundef 1) #21
  br label %_ZN4llvm11raw_ostreamlsEPKc.exit20

33:                                               ; preds = %._crit_edge
  store i8 10, ptr %29, align 1
  %34 = load ptr, ptr %7, align 8
  %35 = getelementptr inbounds i8, ptr %34, i64 1
  store ptr %35, ptr %7, align 8
  br label %_ZN4llvm11raw_ostreamlsEPKc.exit20

_ZN4llvm11raw_ostreamlsEPKc.exit20:               ; preds = %31, %33
  %36 = getelementptr inbounds i8, ptr %.025, i64 40
  %.not = icmp eq ptr %36, %18
  br i1 %.not, label %._crit_edge27, label %21

._crit_edge27:                                    ; preds = %_ZN4llvm11raw_ostreamlsEPKc.exit20, %_ZN4llvm11raw_ostreamlsEPKc.exit
  ret void
}